; Function Attrs: nounwind uwtable
define internal void @listiter_dealloc(ptr noundef %0) #0 {
  %2 = getelementptr i8, ptr %0, i64 -16
  %3 = getelementptr i8, ptr %0, i64 -8
  %.val.i = load i64, ptr %3, align 8, !tbaa !35
  %4 = and i64 %.val.i, -4
  %5 = inttoptr i64 %4 to ptr
  %.val9.i = load i64, ptr %2, align 8, !tbaa !37
  %6 = and i64 %.val9.i, -4
  %7 = inttoptr i64 %6 to ptr
  %8 = load i64, ptr %5, align 8, !tbaa !37
  %9 = and i64 %8, 3
  %10 = or disjoint i64 %9, %6
  store i64 %10, ptr %5, align 8, !tbaa !37
  %11 = getelementptr inbounds nuw i8, ptr %7, i64 8
  %12 = load i64, ptr %11, align 8, !tbaa !35
  %13 = and i64 %12, 3
  %14 = or disjoint i64 %13, %4
  store i64 %14, ptr %11, align 8, !tbaa !35
  store i64 0, ptr %2, align 8, !tbaa !37
  %15 = load i64, ptr %3, align 8, !tbaa !35
  %16 = and i64 %15, 1
  store i64 %16, ptr %3, align 8, !tbaa !35
  %17 = getelementptr inbounds nuw i8, ptr %0, i64 24
  %18 = load ptr, ptr %17, align 8, !tbaa !171
  %.not.i = icmp eq ptr %18, null
  br i1 %.not.i, label %Py_XDECREF.exit, label %19

19:                                               ; preds = %1
  %20 = load i32, ptr %18, align 8, !tbaa !32
  %.not.i.i = icmp sgt i32 %20, -1
  br i1 %.not.i.i, label %21, label %Py_XDECREF.exit

21:                                               ; preds = %19
  %22 = add nsw i32 %20, -1
  store i32 %22, ptr %18, align 8, !tbaa !32
  %23 = icmp eq i32 %22, 0
  br i1 %23, label %24, label %Py_XDECREF.exit

24:                                               ; preds = %21
  tail call void @_Py_Dealloc(ptr noundef nonnull %18) #12
  br label %Py_XDECREF.exit

Py_XDECREF.exit:                                  ; preds = %1, %19, %21, %24
  %25 = tail call align 8 ptr @llvm.threadlocal.address.p0(ptr align 8 @_Py_tss_tstate)
  %26 = load ptr, ptr %25, align 8, !tbaa !4
  %27 = getelementptr inbounds nuw i8, ptr %26, i64 16
  %28 = load ptr, ptr %27, align 8, !tbaa !9
  %29 = getelementptr inbounds nuw i8, ptr %28, i64 11408
  %30 = load i64, ptr %29, align 8, !tbaa !26
  %or.cond.i.i = icmp ult i64 %30, 10
  br i1 %or.cond.i.i, label %_PyFreeList_Push.exit.i, label %34

_PyFreeList_Push.exit.i:                          ; preds = %Py_XDECREF.exit
  %31 = getelementptr inbounds nuw i8, ptr %28, i64 11400
  %32 = load ptr, ptr %31, align 8, !tbaa !24
  store ptr %32, ptr %0, align 8, !tbaa !25
  store ptr %0, ptr %31, align 8, !tbaa !24
  %33 = add nuw nsw i64 %30, 1
  store i64 %33, ptr %29, align 8, !tbaa !26
  br label %_PyFreeList_Free.exit

34:                                               ; preds = %Py_XDECREF.exit
  tail call void @PyObject_GC_Del(ptr noundef nonnull %0) #12
  br label %_PyFreeList_Free.exit

_PyFreeList_Free.exit:                            ; preds = %_PyFreeList_Push.exit.i, %34
  ret void
}